target datalayout = "e-m:e-p270:32:32-p271:32:32-p272:64:64-i64:64-i128:128-f80:128-n8:16:32:64-S128"
target triple = "x86_64-pc-linux-gnu"

; Function Attrs: nounwind uwtable
define internal void @blend_hline(ptr noundef %0, i32 noundef %1, i32 noundef %2, float noundef %3, float noundef %4, i32 noundef %5, i32 noundef %6) #1 {
  %8 = alloca ptr, align 8
  %9 = alloca i32, align 4
  %10 = alloca i32, align 4
  %11 = alloca float, align 4
  %12 = alloca float, align 4
  %13 = alloca i32, align 4
  %14 = alloca i32, align 4
  %15 = alloca i32, align 4
  store ptr %0, ptr %8, align 8, !tbaa !77
  store i32 %1, ptr %9, align 4, !tbaa !47
  store i32 %2, ptr %10, align 4, !tbaa !47
  store float %3, ptr %11, align 4, !tbaa !69
  store float %4, ptr %12, align 4, !tbaa !69
  store i32 %5, ptr %13, align 4, !tbaa !47
  store i32 %6, ptr %14, align 4, !tbaa !47
  call void @llvm.lifetime.start.p0(i64 4, ptr %15) #10
  store i32 0, ptr %15, align 4, !tbaa !47
  br label %16

16:                                               ; preds = %39, %7
  %17 = load i32, ptr %15, align 4, !tbaa !47
  %18 = load i32, ptr %9, align 4, !tbaa !47
  %19 = icmp slt i32 %17, %18
  br i1 %19, label %20, label %43

20:                                               ; preds = %16
  %21 = load i32, ptr %13, align 4, !tbaa !47
  %22 = sitofp i32 %21 to float
  %23 = load float, ptr %11, align 4, !tbaa !69
  %24 = load ptr, ptr %8, align 8, !tbaa !77
  %25 = load i32, ptr %15, align 4, !tbaa !47
  %26 = sext i32 %25 to i64
  %27 = getelementptr inbounds i8, ptr %24, i64 %26
  %28 = load i8, ptr %27, align 1, !tbaa !68
  %29 = zext i8 %28 to i32
  %30 = sitofp i32 %29 to float
  %31 = load float, ptr %12, align 4, !tbaa !69
  %32 = fmul nsz float %30, %31
  %33 = call nsz float @llvm.fmuladd.f32(float %22, float %23, float %32)
  %34 = fptoui float %33 to i8
  %35 = load ptr, ptr %8, align 8, !tbaa !77
  %36 = load i32, ptr %15, align 4, !tbaa !47
  %37 = sext i32 %36 to i64
  %38 = getelementptr inbounds i8, ptr %35, i64 %37
  store i8 %34, ptr %38, align 1, !tbaa !68
  br label %39

39:                                               ; preds = %20
  %40 = load i32, ptr %14, align 4, !tbaa !47
  %41 = load i32, ptr %15, align 4, !tbaa !47
  %42 = add nsw i32 %41, %40
  store i32 %42, ptr %15, align 4, !tbaa !47
  br label %16, !llvm.loop !210

43:                                               ; preds = %16
  call void @llvm.lifetime.end.p0(i64 4, ptr %15) #10
  ret void
}