; Function Attrs: nofree norecurse nosync nounwind memory(argmem: readwrite) uwtable
define internal void @blend_hline(ptr noundef captures(none) %0, i32 noundef %1, i32 %2, float noundef %3, float noundef %4, i32 noundef %5, i32 noundef %6) #8 {
  %8 = icmp sgt i32 %1, 0
  br i1 %8, label %.lr.ph, label %._crit_edge

.lr.ph:                                           ; preds = %7
  %9 = sitofp i32 %5 to float
  %10 = sext i32 %6 to i64
  %11 = zext nneg i32 %1 to i64
  br label %12

12:                                               ; preds = %.lr.ph, %12
  %indvars.iv = phi i64 [ 0, %.lr.ph ], [ %indvars.iv.next, %12 ]
  %13 = getelementptr inbounds i8, ptr %0, i64 %indvars.iv
  %14 = load i8, ptr %13, align 1, !tbaa !62
  %15 = uitofp i8 %14 to float
  %16 = fmul nsz float %4, %15
  %17 = tail call nsz float @llvm.fmuladd.f32(float %9, float %3, float %16)
  %18 = fptoui float %17 to i8
  store i8 %18, ptr %13, align 1, !tbaa !62
  %indvars.iv.next = add nsw i64 %indvars.iv, %10
  %19 = icmp slt i64 %indvars.iv.next, %11
  br i1 %19, label %12, label %._crit_edge, !llvm.loop !249

._crit_edge:                                      ; preds = %12, %7
  ret void
}